; Function Attrs: mustprogress nofree norecurse nosync nounwind willreturn memory(argmem: read) uwtable
define internal i64 @err_string_data_hash(ptr noundef readonly captures(none) %0) #7 {
  %2 = load i64, ptr %0, align 8, !tbaa !17
  %3 = and i64 %2, 2147483648
  %.not.i = icmp eq i64 %3, 0
  %4 = lshr i64 %2, 23
  %5 = and i64 %4, 511
  %6 = select i1 %.not.i, i64 %5, i64 2
  %7 = xor i64 %6, %2
  %8 = urem i64 %7, 19
  %9 = mul nuw nsw i64 %8, 13
  %10 = xor i64 %9, %7
  ret i64 %10
}